#include <math.h>
#include <stdio.h>
#include <stdlib.h>
#include <string.h>

int main(){
	char s[160],ans[160];
	int st[160],i,si;
	for (;scanf("%s",s)!=EOF;){
		for (ans[0]=' ',si=i=0;i<strlen(s);si-=(s[i]==')'&&si>0),ans[++i]=' ')
			if (s[i]=='(') st[si++]=i;
			else if (s[i]==')')	ans[i]=(si>0)?' ':'?';			
		for (ans[strlen(s)]='\0',i=0;i<si;i++) ans[st[i]]='$';
		printf("%s\n%s\n",s,ans);
	}
}